(lp0
(S'stty'
p1
S'/bin/stty'
p2
tp3
a(S'version.txt'
p4
S'/usr/share/arduino/lib/version.txt'
p5
tp6
a(S'used_libs'
p7
(lp8
S'/usr/share/arduino/hardware/arduino/cores/arduino'
p9
atp10
a(S'cxx'
p11
S'/usr/bin/avr-g++'
p12
tp13
a(S'arduino_variants_dir'
p14
S'/usr/share/arduino/hardware/arduino/variants'
p15
tp16
a(S'arduino_libraries_dir'
p17
S'/usr/share/arduino/libraries'
p18
tp19
a(S'arduino_core_dir'
p20
g9
tp21
a(S'boards.txt'
p22
S'/usr/share/arduino/hardware/arduino/boards.txt'
p23
tp24
a(S'cxxflags'
p25
ccopy_reg
_reconstructor
p26
(cino.utils
SpaceList
p27
c__builtin__
list
p28
(lp29
S'-fno-exceptions'
p30
atp31
Rp32
tp33
a(S'cc'
p34
S'/usr/bin/avr-gcc'
p35
tp36
a(S'avrdude'
p37
S'/usr/share/arduino/hardware/tools/avrdude'
p38
tp39
a(S'avrdude.conf'
p40
S'/usr/share/arduino/hardware/tools/avrdude.conf'
p41
tp42
a(S'names'
p43
(dp44
S'cpp'
p45
S'%s.cpp'
p46
sS'obj'
p47
S'%s.o'
p48
sS'lib'
p49
S'lib%s.a'
p50
sS'deps'
p51
S'%s.d'
p52
stp53
a(S'cflags'
p54
g26
(g27
g28
(lp55
S'-mmcu=atmega328p'
p56
aS'-ffunction-sections'
p57
aS'-fdata-sections'
p58
aS'-g'
p59
aS'-Os'
p60
aS'-w'
p61
aS'-DF_CPU=16000000L'
p62
aS'-DARDUINO=100'
p63
aS'-I/usr/share/arduino/hardware/arduino/cores/arduino'
p64
aS'-I/usr/share/arduino/hardware/arduino/variants/standard'
p65
aS'-I/usr/share/arduino/hardware/arduino/cores/arduino'
p66
atp67
Rp68
tp69
a(S'elfflags'
p70
g26
(g27
g28
(lp71
g60
aS'-Wl,--gc-sections'
p72
ag56
atp73
Rp74
tp75
a(S'arduino_lib_version'
p76
g26
(cino.environment
Version
p77
c__builtin__
tuple
p78
(I1
I0
tp79
tp80
Rp81
tp82
a(S'objcopy'
p83
S'/usr/bin/avr-objcopy'
p84
tp85
a(S'ar'
p86
S'/usr/bin/avr-ar'
p87
tp88
a(S'board_models'
p89
cino.environment
BoardModels
p90
((lp91
(lp92
S'uno'
p93
a(dp94
S'bootloader'
p95
(dp96
S'extended_fuses'
p97
S'0x05'
p98
sS'high_fuses'
p99
S'0xde'
p100
sS'low_fuses'
p101
S'0xff'
p102
sS'lock_bits'
p103
S'0x0F'
p104
sS'file'
p105
S'optiboot_atmega328.hex'
p106
sS'path'
p107
S'optiboot'
p108
sS'unlock_bits'
p109
S'0x3F'
p110
ssS'upload'
p111
(dp112
S'protocol'
p113
S'arduino'
p114
sS'maximum_size'
p115
S'32256'
p116
sS'speed'
p117
S'115200'
p118
ssS'build'
p119
(dp120
S'core'
p121
S'arduino'
p122
sS'mcu'
p123
S'atmega328p'
p124
sS'f_cpu'
p125
S'16000000L'
p126
sS'variant'
p127
S'standard'
p128
ssS'name'
p129
S'Arduino Uno'
p130
saa(lp131
S'atmega328'
p132
a(dp133
S'bootloader'
p134
(dp135
S'extended_fuses'
p136
S'0x05'
p137
sS'high_fuses'
p138
S'0xDA'
p139
sS'low_fuses'
p140
S'0xFF'
p141
sS'lock_bits'
p142
S'0x0F'
p143
sS'file'
p144
S'ATmegaBOOT_168_atmega328.hex'
p145
sS'path'
p146
S'atmega'
p147
sS'unlock_bits'
p148
S'0x3F'
p149
ssS'upload'
p150
(dp151
S'protocol'
p152
S'arduino'
p153
sS'maximum_size'
p154
S'30720'
p155
sS'speed'
p156
S'57600'
p157
ssS'build'
p158
(dp159
S'core'
p160
S'arduino'
p161
sS'mcu'
p162
S'atmega328p'
p163
sS'f_cpu'
p164
S'16000000L'
p165
sS'variant'
p166
S'standard'
p167
ssS'name'
p168
S'Arduino Duemilanove w/ ATmega328'
p169
saa(lp170
S'diecimila'
p171
a(dp172
S'bootloader'
p173
(dp174
S'extended_fuses'
p175
S'0x00'
p176
sS'high_fuses'
p177
S'0xdd'
p178
sS'low_fuses'
p179
S'0xff'
p180
sS'lock_bits'
p181
S'0x0F'
p182
sS'file'
p183
S'ATmegaBOOT_168_diecimila.hex'
p184
sS'path'
p185
S'atmega'
p186
sS'unlock_bits'
p187
S'0x3F'
p188
ssS'upload'
p189
(dp190
S'protocol'
p191
S'arduino'
p192
sS'maximum_size'
p193
S'14336'
p194
sS'speed'
p195
S'19200'
p196
ssS'build'
p197
(dp198
S'core'
p199
S'arduino'
p200
sS'mcu'
p201
S'atmega168'
p202
sS'f_cpu'
p203
S'16000000L'
p204
sS'variant'
p205
S'standard'
p206
ssS'name'
p207
S'Arduino Diecimila or Duemilanove w/ ATmega168'
p208
saa(lp209
S'nano328'
p210
a(dp211
S'bootloader'
p212
(dp213
S'extended_fuses'
p214
S'0x05'
p215
sS'high_fuses'
p216
S'0xDA'
p217
sS'low_fuses'
p218
S'0xFF'
p219
sS'lock_bits'
p220
S'0x0F'
p221
sS'file'
p222
S'ATmegaBOOT_168_atmega328.hex'
p223
sS'path'
p224
S'atmega'
p225
sS'unlock_bits'
p226
S'0x3F'
p227
ssS'upload'
p228
(dp229
S'protocol'
p230
S'arduino'
p231
sS'maximum_size'
p232
S'30720'
p233
sS'speed'
p234
S'57600'
p235
ssS'build'
p236
(dp237
S'core'
p238
S'arduino'
p239
sS'mcu'
p240
S'atmega328p'
p241
sS'f_cpu'
p242
S'16000000L'
p243
sS'variant'
p244
S'eightanaloginputs'
p245
ssS'name'
p246
S'Arduino Nano w/ ATmega328'
p247
saa(lp248
S'nano'
p249
a(dp250
S'bootloader'
p251
(dp252
S'extended_fuses'
p253
S'0x00'
p254
sS'high_fuses'
p255
S'0xdd'
p256
sS'low_fuses'
p257
S'0xff'
p258
sS'lock_bits'
p259
S'0x0F'
p260
sS'file'
p261
S'ATmegaBOOT_168_diecimila.hex'
p262
sS'path'
p263
S'atmega'
p264
sS'unlock_bits'
p265
S'0x3F'
p266
ssS'upload'
p267
(dp268
S'protocol'
p269
S'arduino'
p270
sS'maximum_size'
p271
S'14336'
p272
sS'speed'
p273
S'19200'
p274
ssS'build'
p275
(dp276
S'core'
p277
S'arduino'
p278
sS'mcu'
p279
S'atmega168'
p280
sS'f_cpu'
p281
S'16000000L'
p282
sS'variant'
p283
S'eightanaloginputs'
p284
ssS'name'
p285
S'Arduino Nano w/ ATmega168'
p286
saa(lp287
S'mega2560'
p288
a(dp289
S'bootloader'
p290
(dp291
S'extended_fuses'
p292
S'0xFD'
p293
sS'high_fuses'
p294
S'0xD8'
p295
sS'low_fuses'
p296
S'0xFF'
p297
sS'lock_bits'
p298
S'0x0F'
p299
sS'file'
p300
S'stk500boot_v2_mega2560.hex'
p301
sS'path'
p302
S'stk500v2'
p303
sS'unlock_bits'
p304
S'0x3F'
p305
ssS'upload'
p306
(dp307
S'protocol'
p308
S'stk500v2'
p309
sS'maximum_size'
p310
S'258048'
p311
sS'speed'
p312
S'115200'
p313
ssS'build'
p314
(dp315
S'core'
p316
S'arduino'
p317
sS'mcu'
p318
S'atmega2560'
p319
sS'f_cpu'
p320
S'16000000L'
p321
sS'variant'
p322
S'mega'
p323
ssS'name'
p324
S'Arduino Mega 2560 or Mega ADK'
p325
saa(lp326
S'mega'
p327
a(dp328
S'bootloader'
p329
(dp330
S'extended_fuses'
p331
S'0xF5'
p332
sS'high_fuses'
p333
S'0xDA'
p334
sS'low_fuses'
p335
S'0xFF'
p336
sS'lock_bits'
p337
S'0x0F'
p338
sS'file'
p339
S'ATmegaBOOT_168_atmega1280.hex'
p340
sS'path'
p341
S'atmega'
p342
sS'unlock_bits'
p343
S'0x3F'
p344
ssS'upload'
p345
(dp346
S'protocol'
p347
S'arduino'
p348
sS'maximum_size'
p349
S'126976'
p350
sS'speed'
p351
S'57600'
p352
ssS'build'
p353
(dp354
S'core'
p355
S'arduino'
p356
sS'mcu'
p357
S'atmega1280'
p358
sS'f_cpu'
p359
S'16000000L'
p360
sS'variant'
p361
S'mega'
p362
ssS'name'
p363
S'Arduino Mega (ATmega1280)'
p364
saa(lp365
S'leonardo'
p366
a(dp367
S'bootloader'
p368
(dp369
S'extended_fuses'
p370
S'0xcb'
p371
sS'high_fuses'
p372
S'0xd8'
p373
sS'low_fuses'
p374
S'0xff'
p375
sS'lock_bits'
p376
S'0x2F'
p377
sS'file'
p378
S'Caterina-Leonardo.hex'
p379
sS'path'
p380
S'caterina'
p381
sS'unlock_bits'
p382
S'0x3F'
p383
ssS'upload'
p384
(dp385
S'protocol'
p386
S'avr109'
p387
sS'maximum_size'
p388
S'28672'
p389
sS'speed'
p390
S'57600'
p391
sS'disable_flushing'
p392
S'true'
p393
ssS'build'
p394
(dp395
S'core'
p396
S'arduino'
p397
sS'f_cpu'
p398
S'16000000L'
p399
sS'vid'
p400
S'0x2341'
p401
sS'pid'
p402
S'0x8036'
p403
sS'variant'
p404
S'leonardo'
p405
sS'mcu'
p406
S'atmega32u4'
p407
ssS'name'
p408
S'Arduino Leonardo'
p409
saa(lp410
S'mini328'
p411
a(dp412
S'bootloader'
p413
(dp414
S'extended_fuses'
p415
S'0x05'
p416
sS'high_fuses'
p417
S'0xd8'
p418
sS'low_fuses'
p419
S'0xff'
p420
sS'lock_bits'
p421
S'0x0F'
p422
sS'file'
p423
S'optiboot_atmega328-Mini.hex'
p424
sS'path'
p425
S'optiboot'
p426
sS'unlock_bits'
p427
S'0x3F'
p428
ssS'upload'
p429
(dp430
S'protocol'
p431
S'arduino'
p432
sS'maximum_size'
p433
S'28672'
p434
sS'speed'
p435
S'115200'
p436
ssS'build'
p437
(dp438
S'core'
p439
S'arduino'
p440
sS'mcu'
p441
S'atmega328p'
p442
sS'f_cpu'
p443
S'16000000L'
p444
sS'variant'
p445
S'eightanaloginputs'
p446
ssS'name'
p447
S'Arduino Mini w/ ATmega328'
p448
saa(lp449
S'mini'
p450
a(dp451
S'bootloader'
p452
(dp453
S'extended_fuses'
p454
S'0x00'
p455
sS'high_fuses'
p456
S'0xdd'
p457
sS'low_fuses'
p458
S'0xff'
p459
sS'lock_bits'
p460
S'0x0F'
p461
sS'file'
p462
S'ATmegaBOOT_168_ng.hex'
p463
sS'path'
p464
S'atmega'
p465
sS'unlock_bits'
p466
S'0x3F'
p467
ssS'upload'
p468
(dp469
S'protocol'
p470
S'arduino'
p471
sS'maximum_size'
p472
S'14336'
p473
sS'speed'
p474
S'19200'
p475
ssS'build'
p476
(dp477
S'core'
p478
S'arduino'
p479
sS'mcu'
p480
S'atmega168'
p481
sS'f_cpu'
p482
S'16000000L'
p483
sS'variant'
p484
S'eightanaloginputs'
p485
ssS'name'
p486
S'Arduino Mini w/ ATmega168'
p487
saa(lp488
S'ethernet'
p489
a(dp490
S'bootloader'
p491
(dp492
S'extended_fuses'
p493
S'0x05'
p494
sS'high_fuses'
p495
S'0xde'
p496
sS'low_fuses'
p497
S'0xff'
p498
sS'lock_bits'
p499
S'0x0F'
p500
sS'file'
p501
S'optiboot_atmega328.hex'
p502
sS'path'
p503
S'optiboot'
p504
sS'unlock_bits'
p505
S'0x3F'
p506
ssS'upload'
p507
(dp508
S'protocol'
p509
S'arduino'
p510
sS'maximum_size'
p511
S'32256'
p512
sS'speed'
p513
S'115200'
p514
ssS'build'
p515
(dp516
S'variant'
p517
S'standard'
p518
sS'mcu'
p519
S'atmega328p'
p520
sS'f_cpu'
p521
S'16000000L'
p522
sS'core'
p523
S'arduino'
p524
ssS'name'
p525
S'Arduino Ethernet'
p526
saa(lp527
S'fio'
p528
a(dp529
S'bootloader'
p530
(dp531
S'extended_fuses'
p532
S'0x05'
p533
sS'high_fuses'
p534
S'0xDA'
p535
sS'low_fuses'
p536
S'0xFF'
p537
sS'lock_bits'
p538
S'0x0F'
p539
sS'file'
p540
S'ATmegaBOOT_168_atmega328_pro_8MHz.hex'
p541
sS'path'
p542
S'arduino:atmega'
p543
sS'unlock_bits'
p544
S'0x3F'
p545
ssS'upload'
p546
(dp547
S'protocol'
p548
S'arduino'
p549
sS'maximum_size'
p550
S'30720'
p551
sS'speed'
p552
S'57600'
p553
ssS'build'
p554
(dp555
S'core'
p556
S'arduino'
p557
sS'mcu'
p558
S'atmega328p'
p559
sS'f_cpu'
p560
S'8000000L'
p561
sS'variant'
p562
S'eightanaloginputs'
p563
ssS'name'
p564
S'Arduino Fio'
p565
saa(lp566
S'bt328'
p567
a(dp568
S'bootloader'
p569
(dp570
S'extended_fuses'
p571
S'0x05'
p572
sS'high_fuses'
p573
S'0xd8'
p574
sS'low_fuses'
p575
S'0xff'
p576
sS'lock_bits'
p577
S'0x0F'
p578
sS'file'
p579
S'ATmegaBOOT_168_atmega328_bt.hex'
p580
sS'path'
p581
S'bt'
p582
sS'unlock_bits'
p583
S'0x3F'
p584
ssS'upload'
p585
(dp586
S'protocol'
p587
S'arduino'
p588
sS'maximum_size'
p589
S'28672'
p590
sS'speed'
p591
S'19200'
p592
sS'disable_flushing'
p593
S'true'
p594
ssS'build'
p595
(dp596
S'core'
p597
S'arduino'
p598
sS'mcu'
p599
S'atmega328p'
p600
sS'f_cpu'
p601
S'16000000L'
p602
sS'variant'
p603
S'eightanaloginputs'
p604
ssS'name'
p605
S'Arduino BT w/ ATmega328'
p606
saa(lp607
S'bt'
p608
a(dp609
S'bootloader'
p610
(dp611
S'extended_fuses'
p612
S'0x00'
p613
sS'high_fuses'
p614
S'0xdd'
p615
sS'low_fuses'
p616
S'0xff'
p617
sS'lock_bits'
p618
S'0x0F'
p619
sS'file'
p620
S'ATmegaBOOT_168.hex'
p621
sS'path'
p622
S'bt'
p623
sS'unlock_bits'
p624
S'0x3F'
p625
ssS'upload'
p626
(dp627
S'protocol'
p628
S'arduino'
p629
sS'maximum_size'
p630
S'14336'
p631
sS'speed'
p632
S'19200'
p633
sS'disable_flushing'
p634
S'true'
p635
ssS'build'
p636
(dp637
S'core'
p638
S'arduino'
p639
sS'mcu'
p640
S'atmega168'
p641
sS'f_cpu'
p642
S'16000000L'
p643
sS'variant'
p644
S'eightanaloginputs'
p645
ssS'name'
p646
S'Arduino BT w/ ATmega168'
p647
saa(lp648
S'lilypad328'
p649
a(dp650
S'bootloader'
p651
(dp652
S'extended_fuses'
p653
S'0x05'
p654
sS'high_fuses'
p655
S'0xDA'
p656
sS'low_fuses'
p657
S'0xFF'
p658
sS'lock_bits'
p659
S'0x0F'
p660
sS'file'
p661
S'ATmegaBOOT_168_atmega328_pro_8MHz.hex'
p662
sS'path'
p663
S'atmega'
p664
sS'unlock_bits'
p665
S'0x3F'
p666
ssS'upload'
p667
(dp668
S'protocol'
p669
S'arduino'
p670
sS'maximum_size'
p671
S'30720'
p672
sS'speed'
p673
S'57600'
p674
ssS'build'
p675
(dp676
S'core'
p677
S'arduino'
p678
sS'mcu'
p679
S'atmega328p'
p680
sS'f_cpu'
p681
S'8000000L'
p682
sS'variant'
p683
S'standard'
p684
ssS'name'
p685
S'LilyPad Arduino w/ ATmega328'
p686
saa(lp687
S'lilypad'
p688
a(dp689
S'bootloader'
p690
(dp691
S'extended_fuses'
p692
S'0x00'
p693
sS'high_fuses'
p694
S'0xdd'
p695
sS'low_fuses'
p696
S'0xe2'
p697
sS'lock_bits'
p698
S'0x0F'
p699
sS'file'
p700
S'LilyPadBOOT_168.hex'
p701
sS'path'
p702
S'lilypad'
p703
sS'unlock_bits'
p704
S'0x3F'
p705
ssS'upload'
p706
(dp707
S'protocol'
p708
S'arduino'
p709
sS'maximum_size'
p710
S'14336'
p711
sS'speed'
p712
S'19200'
p713
ssS'build'
p714
(dp715
S'core'
p716
S'arduino'
p717
sS'mcu'
p718
S'atmega168'
p719
sS'f_cpu'
p720
S'8000000L'
p721
sS'variant'
p722
S'standard'
p723
ssS'name'
p724
S'LilyPad Arduino w/ ATmega168'
p725
saa(lp726
S'pro5v328'
p727
a(dp728
S'bootloader'
p729
(dp730
S'extended_fuses'
p731
S'0x05'
p732
sS'high_fuses'
p733
S'0xDA'
p734
sS'low_fuses'
p735
S'0xFF'
p736
sS'lock_bits'
p737
S'0x0F'
p738
sS'file'
p739
S'ATmegaBOOT_168_atmega328.hex'
p740
sS'path'
p741
S'atmega'
p742
sS'unlock_bits'
p743
S'0x3F'
p744
ssS'upload'
p745
(dp746
S'protocol'
p747
S'arduino'
p748
sS'maximum_size'
p749
S'30720'
p750
sS'speed'
p751
S'57600'
p752
ssS'build'
p753
(dp754
S'core'
p755
S'arduino'
p756
sS'mcu'
p757
S'atmega328p'
p758
sS'f_cpu'
p759
S'16000000L'
p760
sS'variant'
p761
S'standard'
p762
ssS'name'
p763
S'Arduino Pro or Pro Mini (5V, 16 MHz) w/ ATmega328'
p764
saa(lp765
S'pro5v'
p766
a(dp767
S'bootloader'
p768
(dp769
S'extended_fuses'
p770
S'0x00'
p771
sS'high_fuses'
p772
S'0xdd'
p773
sS'low_fuses'
p774
S'0xff'
p775
sS'lock_bits'
p776
S'0x0F'
p777
sS'file'
p778
S'ATmegaBOOT_168_diecimila.hex'
p779
sS'path'
p780
S'atmega'
p781
sS'unlock_bits'
p782
S'0x3F'
p783
ssS'upload'
p784
(dp785
S'protocol'
p786
S'arduino'
p787
sS'maximum_size'
p788
S'14336'
p789
sS'speed'
p790
S'19200'
p791
ssS'build'
p792
(dp793
S'core'
p794
S'arduino'
p795
sS'mcu'
p796
S'atmega168'
p797
sS'f_cpu'
p798
S'16000000L'
p799
sS'variant'
p800
S'standard'
p801
ssS'name'
p802
S'Arduino Pro or Pro Mini (5V, 16 MHz) w/ ATmega168'
p803
saa(lp804
S'pro328'
p805
a(dp806
S'bootloader'
p807
(dp808
S'extended_fuses'
p809
S'0x05'
p810
sS'high_fuses'
p811
S'0xDA'
p812
sS'low_fuses'
p813
S'0xFF'
p814
sS'lock_bits'
p815
S'0x0F'
p816
sS'file'
p817
S'ATmegaBOOT_168_atmega328_pro_8MHz.hex'
p818
sS'path'
p819
S'atmega'
p820
sS'unlock_bits'
p821
S'0x3F'
p822
ssS'upload'
p823
(dp824
S'protocol'
p825
S'arduino'
p826
sS'maximum_size'
p827
S'30720'
p828
sS'speed'
p829
S'57600'
p830
ssS'build'
p831
(dp832
S'core'
p833
S'arduino'
p834
sS'mcu'
p835
S'atmega328p'
p836
sS'f_cpu'
p837
S'8000000L'
p838
sS'variant'
p839
S'standard'
p840
ssS'name'
p841
S'Arduino Pro or Pro Mini (3.3V, 8 MHz) w/ ATmega328'
p842
saa(lp843
S'pro'
p844
a(dp845
S'bootloader'
p846
(dp847
S'extended_fuses'
p848
S'0x00'
p849
sS'high_fuses'
p850
S'0xdd'
p851
sS'low_fuses'
p852
S'0xc6'
p853
sS'lock_bits'
p854
S'0x0F'
p855
sS'file'
p856
S'ATmegaBOOT_168_pro_8MHz.hex'
p857
sS'path'
p858
S'atmega'
p859
sS'unlock_bits'
p860
S'0x3F'
p861
ssS'upload'
p862
(dp863
S'protocol'
p864
S'arduino'
p865
sS'maximum_size'
p866
S'14336'
p867
sS'speed'
p868
S'19200'
p869
ssS'build'
p870
(dp871
S'core'
p872
S'arduino'
p873
sS'mcu'
p874
S'atmega168'
p875
sS'f_cpu'
p876
S'8000000L'
p877
sS'variant'
p878
S'standard'
p879
ssS'name'
p880
S'Arduino Pro or Pro Mini (3.3V, 8 MHz) w/ ATmega168'
p881
saa(lp882
S'atmega168'
p883
a(dp884
S'bootloader'
p885
(dp886
S'extended_fuses'
p887
S'0x00'
p888
sS'high_fuses'
p889
S'0xdd'
p890
sS'low_fuses'
p891
S'0xff'
p892
sS'lock_bits'
p893
S'0x0F'
p894
sS'file'
p895
S'ATmegaBOOT_168_ng.hex'
p896
sS'path'
p897
S'atmega'
p898
sS'unlock_bits'
p899
S'0x3F'
p900
ssS'upload'
p901
(dp902
S'protocol'
p903
S'arduino'
p904
sS'maximum_size'
p905
S'14336'
p906
sS'speed'
p907
S'19200'
p908
ssS'build'
p909
(dp910
S'core'
p911
S'arduino'
p912
sS'mcu'
p913
S'atmega168'
p914
sS'f_cpu'
p915
S'16000000L'
p916
sS'variant'
p917
S'standard'
p918
ssS'name'
p919
S'Arduino NG or older w/ ATmega168'
p920
saa(lp921
S'atmega8'
p922
a(dp923
S'bootloader'
p924
(dp925
S'high_fuses'
p926
S'0xca'
p927
sS'low_fuses'
p928
S'0xdf'
p929
sS'lock_bits'
p930
S'0x0F'
p931
sS'file'
p932
S'ATmegaBOOT.hex'
p933
sS'path'
p934
S'atmega8'
p935
sS'unlock_bits'
p936
S'0x3F'
p937
ssS'upload'
p938
(dp939
S'protocol'
p940
S'arduino'
p941
sS'maximum_size'
p942
S'7168'
p943
sS'speed'
p944
S'19200'
p945
ssS'build'
p946
(dp947
S'core'
p948
S'arduino'
p949
sS'mcu'
p950
S'atmega8'
p951
sS'f_cpu'
p952
S'16000000L'
p953
sS'variant'
p954
S'standard'
p955
ssS'name'
p956
S'Arduino NG or older w/ ATmega8'
p957
saatp958
Rp959
(dp960
S'default'
p961
S'uno'
p962
sbtp963
a(S'deps'
p964
g26
(g27
g28
(lp965
S'.build/uno/src/dependencies.d'
p966
aS'.build/uno/arduino/dependencies.d'
p967
atp968
Rp969
tp970
a(S'build_dir'
p971
S'.build/uno'
p972
tp973
a.