(lp0
(S'arduino_libraries_dir'
p1
S'/usr/share/arduino/libraries'
p2
tp3
a(S'cxx'
p4
S'/usr/bin/avr-g++'
p5
tp6
a(S'stty'
p7
S'/bin/stty'
p8
tp9
a(S'version.txt'
p10
S'/usr/share/arduino/lib/version.txt'
p11
tp12
a(S'used_libs'
p13
(lp14
S'/usr/share/arduino/hardware/arduino/cores/arduino'
p15
atp16
a(S'cc'
p17
S'/usr/bin/avr-gcc'
p18
tp19
a(S'build_dir'
p20
S'.build/uno'
p21
tp22
a(S'arduino_core_dir'
p23
g15
tp24
a(S'boards.txt'
p25
S'/usr/share/arduino/hardware/arduino/boards.txt'
p26
tp27
a(S'cxxflags'
p28
ccopy_reg
_reconstructor
p29
(cino.utils
SpaceList
p30
c__builtin__
list
p31
(lp32
S'-fno-exceptions'
p33
atp34
Rp35
tp36
a(S'arduino_variants_dir'
p37
S'/usr/share/arduino/hardware/arduino/variants'
p38
tp39
a(S'avrdude'
p40
S'/usr/share/arduino/hardware/tools/avrdude'
p41
tp42
a(S'avrdude.conf'
p43
S'/usr/share/arduino/hardware/tools/avrdude.conf'
p44
tp45
a(S'names'
p46
(dp47
S'cpp'
p48
S'%s.cpp'
p49
sS'obj'
p50
S'%s.o'
p51
sS'deps'
p52
S'%s.d'
p53
sS'lib'
p54
S'lib%s.a'
p55
stp56
a(S'cflags'
p57
g29
(g30
g31
(lp58
S'-mmcu=atmega328p'
p59
aS'-ffunction-sections'
p60
aS'-fdata-sections'
p61
aS'-g'
p62
aS'-Os'
p63
aS'-w'
p64
aS'-DF_CPU=16000000L'
p65
aS'-DARDUINO=100'
p66
aS'-I/usr/share/arduino/hardware/arduino/cores/arduino'
p67
aS'-I/usr/share/arduino/hardware/arduino/variants/standard'
p68
aS'-I/usr/share/arduino/hardware/arduino/cores/arduino'
p69
atp70
Rp71
tp72
a(S'elfflags'
p73
g29
(g30
g31
(lp74
g63
aS'-Wl,--gc-sections'
p75
ag59
atp76
Rp77
tp78
a(S'arduino_lib_version'
p79
g29
(cino.environment
Version
p80
c__builtin__
tuple
p81
(I1
I0
tp82
tp83
Rp84
tp85
a(S'objcopy'
p86
S'/usr/bin/avr-objcopy'
p87
tp88
a(S'ar'
p89
S'/usr/bin/avr-ar'
p90
tp91
a(S'board_models'
p92
cino.environment
BoardModels
p93
((lp94
(lp95
S'uno'
p96
a(dp97
S'bootloader'
p98
(dp99
S'extended_fuses'
p100
S'0x05'
p101
sS'high_fuses'
p102
S'0xde'
p103
sS'low_fuses'
p104
S'0xff'
p105
sS'lock_bits'
p106
S'0x0F'
p107
sS'file'
p108
S'optiboot_atmega328.hex'
p109
sS'path'
p110
S'optiboot'
p111
sS'unlock_bits'
p112
S'0x3F'
p113
ssS'build'
p114
(dp115
S'core'
p116
S'arduino'
p117
sS'mcu'
p118
S'atmega328p'
p119
sS'f_cpu'
p120
S'16000000L'
p121
sS'variant'
p122
S'standard'
p123
ssS'name'
p124
S'Arduino Uno'
p125
sS'upload'
p126
(dp127
S'speed'
p128
S'115200'
p129
sS'maximum_size'
p130
S'32256'
p131
sS'protocol'
p132
S'arduino'
p133
ssaa(lp134
S'atmega328'
p135
a(dp136
S'bootloader'
p137
(dp138
S'extended_fuses'
p139
S'0x05'
p140
sS'high_fuses'
p141
S'0xDA'
p142
sS'low_fuses'
p143
S'0xFF'
p144
sS'lock_bits'
p145
S'0x0F'
p146
sS'file'
p147
S'ATmegaBOOT_168_atmega328.hex'
p148
sS'path'
p149
S'atmega'
p150
sS'unlock_bits'
p151
S'0x3F'
p152
ssS'build'
p153
(dp154
S'core'
p155
S'arduino'
p156
sS'mcu'
p157
S'atmega328p'
p158
sS'f_cpu'
p159
S'16000000L'
p160
sS'variant'
p161
S'standard'
p162
ssS'name'
p163
S'Arduino Duemilanove w/ ATmega328'
p164
sS'upload'
p165
(dp166
S'speed'
p167
S'57600'
p168
sS'maximum_size'
p169
S'30720'
p170
sS'protocol'
p171
S'arduino'
p172
ssaa(lp173
S'diecimila'
p174
a(dp175
S'bootloader'
p176
(dp177
S'extended_fuses'
p178
S'0x00'
p179
sS'high_fuses'
p180
S'0xdd'
p181
sS'low_fuses'
p182
S'0xff'
p183
sS'lock_bits'
p184
S'0x0F'
p185
sS'file'
p186
S'ATmegaBOOT_168_diecimila.hex'
p187
sS'path'
p188
S'atmega'
p189
sS'unlock_bits'
p190
S'0x3F'
p191
ssS'build'
p192
(dp193
S'core'
p194
S'arduino'
p195
sS'mcu'
p196
S'atmega168'
p197
sS'f_cpu'
p198
S'16000000L'
p199
sS'variant'
p200
S'standard'
p201
ssS'name'
p202
S'Arduino Diecimila or Duemilanove w/ ATmega168'
p203
sS'upload'
p204
(dp205
S'speed'
p206
S'19200'
p207
sS'maximum_size'
p208
S'14336'
p209
sS'protocol'
p210
S'arduino'
p211
ssaa(lp212
S'nano328'
p213
a(dp214
S'bootloader'
p215
(dp216
S'extended_fuses'
p217
S'0x05'
p218
sS'high_fuses'
p219
S'0xDA'
p220
sS'low_fuses'
p221
S'0xFF'
p222
sS'lock_bits'
p223
S'0x0F'
p224
sS'file'
p225
S'ATmegaBOOT_168_atmega328.hex'
p226
sS'path'
p227
S'atmega'
p228
sS'unlock_bits'
p229
S'0x3F'
p230
ssS'build'
p231
(dp232
S'core'
p233
S'arduino'
p234
sS'mcu'
p235
S'atmega328p'
p236
sS'f_cpu'
p237
S'16000000L'
p238
sS'variant'
p239
S'eightanaloginputs'
p240
ssS'name'
p241
S'Arduino Nano w/ ATmega328'
p242
sS'upload'
p243
(dp244
S'speed'
p245
S'57600'
p246
sS'maximum_size'
p247
S'30720'
p248
sS'protocol'
p249
S'arduino'
p250
ssaa(lp251
S'nano'
p252
a(dp253
S'bootloader'
p254
(dp255
S'extended_fuses'
p256
S'0x00'
p257
sS'high_fuses'
p258
S'0xdd'
p259
sS'low_fuses'
p260
S'0xff'
p261
sS'lock_bits'
p262
S'0x0F'
p263
sS'file'
p264
S'ATmegaBOOT_168_diecimila.hex'
p265
sS'path'
p266
S'atmega'
p267
sS'unlock_bits'
p268
S'0x3F'
p269
ssS'build'
p270
(dp271
S'core'
p272
S'arduino'
p273
sS'mcu'
p274
S'atmega168'
p275
sS'f_cpu'
p276
S'16000000L'
p277
sS'variant'
p278
S'eightanaloginputs'
p279
ssS'name'
p280
S'Arduino Nano w/ ATmega168'
p281
sS'upload'
p282
(dp283
S'speed'
p284
S'19200'
p285
sS'maximum_size'
p286
S'14336'
p287
sS'protocol'
p288
S'arduino'
p289
ssaa(lp290
S'mega2560'
p291
a(dp292
S'bootloader'
p293
(dp294
S'extended_fuses'
p295
S'0xFD'
p296
sS'high_fuses'
p297
S'0xD8'
p298
sS'low_fuses'
p299
S'0xFF'
p300
sS'lock_bits'
p301
S'0x0F'
p302
sS'file'
p303
S'stk500boot_v2_mega2560.hex'
p304
sS'path'
p305
S'stk500v2'
p306
sS'unlock_bits'
p307
S'0x3F'
p308
ssS'build'
p309
(dp310
S'core'
p311
S'arduino'
p312
sS'mcu'
p313
S'atmega2560'
p314
sS'f_cpu'
p315
S'16000000L'
p316
sS'variant'
p317
S'mega'
p318
ssS'name'
p319
S'Arduino Mega 2560 or Mega ADK'
p320
sS'upload'
p321
(dp322
S'speed'
p323
S'115200'
p324
sS'maximum_size'
p325
S'258048'
p326
sS'protocol'
p327
S'stk500v2'
p328
ssaa(lp329
S'mega'
p330
a(dp331
S'bootloader'
p332
(dp333
S'extended_fuses'
p334
S'0xF5'
p335
sS'high_fuses'
p336
S'0xDA'
p337
sS'low_fuses'
p338
S'0xFF'
p339
sS'lock_bits'
p340
S'0x0F'
p341
sS'file'
p342
S'ATmegaBOOT_168_atmega1280.hex'
p343
sS'path'
p344
S'atmega'
p345
sS'unlock_bits'
p346
S'0x3F'
p347
ssS'build'
p348
(dp349
S'core'
p350
S'arduino'
p351
sS'mcu'
p352
S'atmega1280'
p353
sS'f_cpu'
p354
S'16000000L'
p355
sS'variant'
p356
S'mega'
p357
ssS'name'
p358
S'Arduino Mega (ATmega1280)'
p359
sS'upload'
p360
(dp361
S'speed'
p362
S'57600'
p363
sS'maximum_size'
p364
S'126976'
p365
sS'protocol'
p366
S'arduino'
p367
ssaa(lp368
S'leonardo'
p369
a(dp370
S'bootloader'
p371
(dp372
S'extended_fuses'
p373
S'0xcb'
p374
sS'high_fuses'
p375
S'0xd8'
p376
sS'low_fuses'
p377
S'0xff'
p378
sS'lock_bits'
p379
S'0x2F'
p380
sS'file'
p381
S'Caterina-Leonardo.hex'
p382
sS'path'
p383
S'caterina'
p384
sS'unlock_bits'
p385
S'0x3F'
p386
ssS'build'
p387
(dp388
S'core'
p389
S'arduino'
p390
sS'f_cpu'
p391
S'16000000L'
p392
sS'vid'
p393
S'0x2341'
p394
sS'pid'
p395
S'0x8036'
p396
sS'variant'
p397
S'leonardo'
p398
sS'mcu'
p399
S'atmega32u4'
p400
ssS'name'
p401
S'Arduino Leonardo'
p402
sS'upload'
p403
(dp404
S'speed'
p405
S'57600'
p406
sS'maximum_size'
p407
S'28672'
p408
sS'protocol'
p409
S'avr109'
p410
sS'disable_flushing'
p411
S'true'
p412
ssaa(lp413
S'mini328'
p414
a(dp415
S'bootloader'
p416
(dp417
S'extended_fuses'
p418
S'0x05'
p419
sS'high_fuses'
p420
S'0xd8'
p421
sS'low_fuses'
p422
S'0xff'
p423
sS'lock_bits'
p424
S'0x0F'
p425
sS'file'
p426
S'optiboot_atmega328-Mini.hex'
p427
sS'path'
p428
S'optiboot'
p429
sS'unlock_bits'
p430
S'0x3F'
p431
ssS'build'
p432
(dp433
S'core'
p434
S'arduino'
p435
sS'mcu'
p436
S'atmega328p'
p437
sS'f_cpu'
p438
S'16000000L'
p439
sS'variant'
p440
S'eightanaloginputs'
p441
ssS'name'
p442
S'Arduino Mini w/ ATmega328'
p443
sS'upload'
p444
(dp445
S'speed'
p446
S'115200'
p447
sS'maximum_size'
p448
S'28672'
p449
sS'protocol'
p450
S'arduino'
p451
ssaa(lp452
S'mini'
p453
a(dp454
S'bootloader'
p455
(dp456
S'extended_fuses'
p457
S'0x00'
p458
sS'high_fuses'
p459
S'0xdd'
p460
sS'low_fuses'
p461
S'0xff'
p462
sS'lock_bits'
p463
S'0x0F'
p464
sS'file'
p465
S'ATmegaBOOT_168_ng.hex'
p466
sS'path'
p467
S'atmega'
p468
sS'unlock_bits'
p469
S'0x3F'
p470
ssS'build'
p471
(dp472
S'core'
p473
S'arduino'
p474
sS'mcu'
p475
S'atmega168'
p476
sS'f_cpu'
p477
S'16000000L'
p478
sS'variant'
p479
S'eightanaloginputs'
p480
ssS'name'
p481
S'Arduino Mini w/ ATmega168'
p482
sS'upload'
p483
(dp484
S'speed'
p485
S'19200'
p486
sS'maximum_size'
p487
S'14336'
p488
sS'protocol'
p489
S'arduino'
p490
ssaa(lp491
S'ethernet'
p492
a(dp493
S'bootloader'
p494
(dp495
S'extended_fuses'
p496
S'0x05'
p497
sS'high_fuses'
p498
S'0xde'
p499
sS'low_fuses'
p500
S'0xff'
p501
sS'lock_bits'
p502
S'0x0F'
p503
sS'file'
p504
S'optiboot_atmega328.hex'
p505
sS'path'
p506
S'optiboot'
p507
sS'unlock_bits'
p508
S'0x3F'
p509
ssS'build'
p510
(dp511
S'f_cpu'
p512
S'16000000L'
p513
sS'mcu'
p514
S'atmega328p'
p515
sS'variant'
p516
S'standard'
p517
sS'core'
p518
S'arduino'
p519
ssS'name'
p520
S'Arduino Ethernet'
p521
sS'upload'
p522
(dp523
S'speed'
p524
S'115200'
p525
sS'maximum_size'
p526
S'32256'
p527
sS'protocol'
p528
S'arduino'
p529
ssaa(lp530
S'fio'
p531
a(dp532
S'bootloader'
p533
(dp534
S'extended_fuses'
p535
S'0x05'
p536
sS'high_fuses'
p537
S'0xDA'
p538
sS'low_fuses'
p539
S'0xFF'
p540
sS'lock_bits'
p541
S'0x0F'
p542
sS'file'
p543
S'ATmegaBOOT_168_atmega328_pro_8MHz.hex'
p544
sS'path'
p545
S'arduino:atmega'
p546
sS'unlock_bits'
p547
S'0x3F'
p548
ssS'build'
p549
(dp550
S'core'
p551
S'arduino'
p552
sS'mcu'
p553
S'atmega328p'
p554
sS'f_cpu'
p555
S'8000000L'
p556
sS'variant'
p557
S'eightanaloginputs'
p558
ssS'name'
p559
S'Arduino Fio'
p560
sS'upload'
p561
(dp562
S'speed'
p563
S'57600'
p564
sS'maximum_size'
p565
S'30720'
p566
sS'protocol'
p567
S'arduino'
p568
ssaa(lp569
S'bt328'
p570
a(dp571
S'bootloader'
p572
(dp573
S'extended_fuses'
p574
S'0x05'
p575
sS'high_fuses'
p576
S'0xd8'
p577
sS'low_fuses'
p578
S'0xff'
p579
sS'lock_bits'
p580
S'0x0F'
p581
sS'file'
p582
S'ATmegaBOOT_168_atmega328_bt.hex'
p583
sS'path'
p584
S'bt'
p585
sS'unlock_bits'
p586
S'0x3F'
p587
ssS'build'
p588
(dp589
S'core'
p590
S'arduino'
p591
sS'mcu'
p592
S'atmega328p'
p593
sS'f_cpu'
p594
S'16000000L'
p595
sS'variant'
p596
S'eightanaloginputs'
p597
ssS'name'
p598
S'Arduino BT w/ ATmega328'
p599
sS'upload'
p600
(dp601
S'speed'
p602
S'19200'
p603
sS'maximum_size'
p604
S'28672'
p605
sS'protocol'
p606
S'arduino'
p607
sS'disable_flushing'
p608
S'true'
p609
ssaa(lp610
S'bt'
p611
a(dp612
S'bootloader'
p613
(dp614
S'extended_fuses'
p615
S'0x00'
p616
sS'high_fuses'
p617
S'0xdd'
p618
sS'low_fuses'
p619
S'0xff'
p620
sS'lock_bits'
p621
S'0x0F'
p622
sS'file'
p623
S'ATmegaBOOT_168.hex'
p624
sS'path'
p625
S'bt'
p626
sS'unlock_bits'
p627
S'0x3F'
p628
ssS'build'
p629
(dp630
S'core'
p631
S'arduino'
p632
sS'mcu'
p633
S'atmega168'
p634
sS'f_cpu'
p635
S'16000000L'
p636
sS'variant'
p637
S'eightanaloginputs'
p638
ssS'name'
p639
S'Arduino BT w/ ATmega168'
p640
sS'upload'
p641
(dp642
S'speed'
p643
S'19200'
p644
sS'maximum_size'
p645
S'14336'
p646
sS'protocol'
p647
S'arduino'
p648
sS'disable_flushing'
p649
S'true'
p650
ssaa(lp651
S'lilypad328'
p652
a(dp653
S'bootloader'
p654
(dp655
S'extended_fuses'
p656
S'0x05'
p657
sS'high_fuses'
p658
S'0xDA'
p659
sS'low_fuses'
p660
S'0xFF'
p661
sS'lock_bits'
p662
S'0x0F'
p663
sS'file'
p664
S'ATmegaBOOT_168_atmega328_pro_8MHz.hex'
p665
sS'path'
p666
S'atmega'
p667
sS'unlock_bits'
p668
S'0x3F'
p669
ssS'build'
p670
(dp671
S'core'
p672
S'arduino'
p673
sS'mcu'
p674
S'atmega328p'
p675
sS'f_cpu'
p676
S'8000000L'
p677
sS'variant'
p678
S'standard'
p679
ssS'name'
p680
S'LilyPad Arduino w/ ATmega328'
p681
sS'upload'
p682
(dp683
S'speed'
p684
S'57600'
p685
sS'maximum_size'
p686
S'30720'
p687
sS'protocol'
p688
S'arduino'
p689
ssaa(lp690
S'lilypad'
p691
a(dp692
S'bootloader'
p693
(dp694
S'extended_fuses'
p695
S'0x00'
p696
sS'high_fuses'
p697
S'0xdd'
p698
sS'low_fuses'
p699
S'0xe2'
p700
sS'lock_bits'
p701
S'0x0F'
p702
sS'file'
p703
S'LilyPadBOOT_168.hex'
p704
sS'path'
p705
S'lilypad'
p706
sS'unlock_bits'
p707
S'0x3F'
p708
ssS'build'
p709
(dp710
S'core'
p711
S'arduino'
p712
sS'mcu'
p713
S'atmega168'
p714
sS'f_cpu'
p715
S'8000000L'
p716
sS'variant'
p717
S'standard'
p718
ssS'name'
p719
S'LilyPad Arduino w/ ATmega168'
p720
sS'upload'
p721
(dp722
S'speed'
p723
S'19200'
p724
sS'maximum_size'
p725
S'14336'
p726
sS'protocol'
p727
S'arduino'
p728
ssaa(lp729
S'pro5v328'
p730
a(dp731
S'bootloader'
p732
(dp733
S'extended_fuses'
p734
S'0x05'
p735
sS'high_fuses'
p736
S'0xDA'
p737
sS'low_fuses'
p738
S'0xFF'
p739
sS'lock_bits'
p740
S'0x0F'
p741
sS'file'
p742
S'ATmegaBOOT_168_atmega328.hex'
p743
sS'path'
p744
S'atmega'
p745
sS'unlock_bits'
p746
S'0x3F'
p747
ssS'build'
p748
(dp749
S'core'
p750
S'arduino'
p751
sS'mcu'
p752
S'atmega328p'
p753
sS'f_cpu'
p754
S'16000000L'
p755
sS'variant'
p756
S'standard'
p757
ssS'name'
p758
S'Arduino Pro or Pro Mini (5V, 16 MHz) w/ ATmega328'
p759
sS'upload'
p760
(dp761
S'speed'
p762
S'57600'
p763
sS'maximum_size'
p764
S'30720'
p765
sS'protocol'
p766
S'arduino'
p767
ssaa(lp768
S'pro5v'
p769
a(dp770
S'bootloader'
p771
(dp772
S'extended_fuses'
p773
S'0x00'
p774
sS'high_fuses'
p775
S'0xdd'
p776
sS'low_fuses'
p777
S'0xff'
p778
sS'lock_bits'
p779
S'0x0F'
p780
sS'file'
p781
S'ATmegaBOOT_168_diecimila.hex'
p782
sS'path'
p783
S'atmega'
p784
sS'unlock_bits'
p785
S'0x3F'
p786
ssS'build'
p787
(dp788
S'core'
p789
S'arduino'
p790
sS'mcu'
p791
S'atmega168'
p792
sS'f_cpu'
p793
S'16000000L'
p794
sS'variant'
p795
S'standard'
p796
ssS'name'
p797
S'Arduino Pro or Pro Mini (5V, 16 MHz) w/ ATmega168'
p798
sS'upload'
p799
(dp800
S'speed'
p801
S'19200'
p802
sS'maximum_size'
p803
S'14336'
p804
sS'protocol'
p805
S'arduino'
p806
ssaa(lp807
S'pro328'
p808
a(dp809
S'bootloader'
p810
(dp811
S'extended_fuses'
p812
S'0x05'
p813
sS'high_fuses'
p814
S'0xDA'
p815
sS'low_fuses'
p816
S'0xFF'
p817
sS'lock_bits'
p818
S'0x0F'
p819
sS'file'
p820
S'ATmegaBOOT_168_atmega328_pro_8MHz.hex'
p821
sS'path'
p822
S'atmega'
p823
sS'unlock_bits'
p824
S'0x3F'
p825
ssS'build'
p826
(dp827
S'core'
p828
S'arduino'
p829
sS'mcu'
p830
S'atmega328p'
p831
sS'f_cpu'
p832
S'8000000L'
p833
sS'variant'
p834
S'standard'
p835
ssS'name'
p836
S'Arduino Pro or Pro Mini (3.3V, 8 MHz) w/ ATmega328'
p837
sS'upload'
p838
(dp839
S'speed'
p840
S'57600'
p841
sS'maximum_size'
p842
S'30720'
p843
sS'protocol'
p844
S'arduino'
p845
ssaa(lp846
S'pro'
p847
a(dp848
S'bootloader'
p849
(dp850
S'extended_fuses'
p851
S'0x00'
p852
sS'high_fuses'
p853
S'0xdd'
p854
sS'low_fuses'
p855
S'0xc6'
p856
sS'lock_bits'
p857
S'0x0F'
p858
sS'file'
p859
S'ATmegaBOOT_168_pro_8MHz.hex'
p860
sS'path'
p861
S'atmega'
p862
sS'unlock_bits'
p863
S'0x3F'
p864
ssS'build'
p865
(dp866
S'core'
p867
S'arduino'
p868
sS'mcu'
p869
S'atmega168'
p870
sS'f_cpu'
p871
S'8000000L'
p872
sS'variant'
p873
S'standard'
p874
ssS'name'
p875
S'Arduino Pro or Pro Mini (3.3V, 8 MHz) w/ ATmega168'
p876
sS'upload'
p877
(dp878
S'speed'
p879
S'19200'
p880
sS'maximum_size'
p881
S'14336'
p882
sS'protocol'
p883
S'arduino'
p884
ssaa(lp885
S'atmega168'
p886
a(dp887
S'bootloader'
p888
(dp889
S'extended_fuses'
p890
S'0x00'
p891
sS'high_fuses'
p892
S'0xdd'
p893
sS'low_fuses'
p894
S'0xff'
p895
sS'lock_bits'
p896
S'0x0F'
p897
sS'file'
p898
S'ATmegaBOOT_168_ng.hex'
p899
sS'path'
p900
S'atmega'
p901
sS'unlock_bits'
p902
S'0x3F'
p903
ssS'build'
p904
(dp905
S'core'
p906
S'arduino'
p907
sS'mcu'
p908
S'atmega168'
p909
sS'f_cpu'
p910
S'16000000L'
p911
sS'variant'
p912
S'standard'
p913
ssS'name'
p914
S'Arduino NG or older w/ ATmega168'
p915
sS'upload'
p916
(dp917
S'speed'
p918
S'19200'
p919
sS'maximum_size'
p920
S'14336'
p921
sS'protocol'
p922
S'arduino'
p923
ssaa(lp924
S'atmega8'
p925
a(dp926
S'bootloader'
p927
(dp928
S'high_fuses'
p929
S'0xca'
p930
sS'low_fuses'
p931
S'0xdf'
p932
sS'lock_bits'
p933
S'0x0F'
p934
sS'file'
p935
S'ATmegaBOOT.hex'
p936
sS'path'
p937
S'atmega8'
p938
sS'unlock_bits'
p939
S'0x3F'
p940
ssS'build'
p941
(dp942
S'core'
p943
S'arduino'
p944
sS'mcu'
p945
S'atmega8'
p946
sS'f_cpu'
p947
S'16000000L'
p948
sS'variant'
p949
S'standard'
p950
ssS'name'
p951
S'Arduino NG or older w/ ATmega8'
p952
sS'upload'
p953
(dp954
S'speed'
p955
S'19200'
p956
sS'maximum_size'
p957
S'7168'
p958
sS'protocol'
p959
S'arduino'
p960
ssaatp961
Rp962
(dp963
S'default'
p964
S'uno'
p965
sbtp966
a(g52
g29
(g30
g31
(lp967
S'.build/uno/src/dependencies.d'
p968
aS'.build/uno/arduino/dependencies.d'
p969
atp970
Rp971
tp972
a.